; Function Attrs: mustprogress nofree nosync nounwind memory(readwrite, inaccessiblemem: none) uwtable
define hidden void @_ZNK4ncnn21Yolov3DetectionOutput21qsort_descent_inplaceERSt6vectorINS0_8BBoxRectESaIS2_EE(ptr noundef nonnull readnone align 8 captures(none) dereferenceable(456) %0, ptr noundef nonnull readonly align 8 captures(none) dereferenceable(24) %1) local_unnamed_addr #9 align 2 {
  %3 = load ptr, ptr %1, align 8, !tbaa !58
  %4 = getelementptr inbounds nuw i8, ptr %1, i64 8
  %5 = load ptr, ptr %4, align 8, !tbaa !58
  %6 = icmp eq ptr %3, %5
  br i1 %6, label %14, label %7

7:                                                ; preds = %2
  %8 = ptrtoint ptr %5 to i64
  %9 = ptrtoint ptr %3 to i64
  %10 = sub i64 %8, %9
  %11 = sdiv exact i64 %10, 28
  %12 = trunc i64 %11 to i32
  %13 = add i32 %12, -1
  tail call void @_ZNK4ncnn21Yolov3DetectionOutput21qsort_descent_inplaceERSt6vectorINS0_8BBoxRectESaIS2_EEii(ptr noundef nonnull align 8 dereferenceable(456) %0, ptr noundef nonnull align 8 dereferenceable(24) %1, i32 noundef 0, i32 noundef %13)
  br label %14

14:                                               ; preds = %2, %7
  ret void
}